ccopy_reg
_reconstructor
p1
(cnltk.classify.decisiontree
DecisionTreeClassifier
p2
c__builtin__
object
p3
NtRp4
(dp5
S'_fname'
p6
S'common'
p7
sS'_label'
p8
S'bug'
p9
sS'_decisions'
p10
(dp11
I01
g1
(g2
g3
NtRp12
(dp13
g6
S'non'
p14
sg8
g9
sg10
(dp15
I01
g1
(g2
g3
NtRp16
(dp17
g6
(S'amp'
p18
S'sektion'
p19
tp20
sg8
g9
sg10
(dp21
I01
g1
(g2
g3
NtRp22
(dp23
g6
Nsg8
S'vuln'
p24
sg10
NsS'_default'
p25
NsbsNg1
(g2
g3
NtRp26
(dp27
g6
S'nova'
p28
sg8
g9
sg10
(dp29
I01
g1
(g2
g3
NtRp30
(dp31
g6
Nsg8
g24
sg10
Nsg25
NsbsNg1
(g2
g3
NtRp32
(dp33
g6
Nsg8
g9
sg10
Nsg25
Nsbssg25
Nsbssg25
NsbsNg1
(g2
g3
NtRp34
(dp35
g6
(S'4'
S'4'
tp36
sg8
g9
sg10
(dp37
I01
g1
(g2
g3
NtRp38
(dp39
g6
S'allowing'
p40
sg8
g9
sg10
(dp41
I01
g1
(g2
g3
NtRp42
(dp43
g6
Nsg8
g24
sg10
Nsg25
NsbsNg1
(g2
g3
NtRp44
(dp45
g6
(S'may'
p46
S'allow'
p47
tp48
sg8
g9
sg10
(dp49
I01
g1
(g2
g3
NtRp50
(dp51
g6
Nsg8
g24
sg10
Nsg25
NsbsNg1
(g2
g3
NtRp52
(dp53
g6
Nsg8
g9
sg10
Nsg25
Nsbssg25
Nsbssg25
NsbsNg1
(g2
g3
NtRp54
(dp55
g6
S'executable'
p56
sg8
g9
sg10
(dp57
I01
g1
(g2
g3
NtRp58
(dp59
g6
Nsg8
g9
sg10
Nsg25
NsbsNg1
(g2
g3
NtRp60
(dp61
g6
S'rb'
p62
sg8
g9
sg10
(dp63
I01
g1
(g2
g3
NtRp64
(dp65
g6
Nsg8
g9
sg10
Nsg25
NsbsNg1
(g2
g3
NtRp66
(dp67
g6
S'pass'
p68
sg8
g9
sg10
(dp69
I01
g1
(g2
g3
NtRp70
(dp71
g6
Nsg8
g9
sg10
Nsg25
NsbsNg1
(g2
g3
NtRp72
(dp73
g6
S'pushed'
p74
sg8
g9
sg10
(dp75
I01
g1
(g2
g3
NtRp76
(dp77
g6
Nsg8
g9
sg10
Nsg25
NsbsNg1
(g2
g3
NtRp78
(dp79
g6
S'dhclient'
p80
sg8
g9
sg10
(dp81
I01
g1
(g2
g3
NtRp82
(dp83
g6
Nsg8
g9
sg10
Nsg25
NsbsNg1
(g2
g3
NtRp84
(dp85
g6
S'reading'
p86
sg8
g9
sg10
(dp87
I01
g1
(g2
g3
NtRp88
(dp89
g6
Nsg8
g9
sg10
Nsg25
NsbsNg1
(g2
g3
NtRp90
(dp91
g6
S'interface'
p92
sg8
g9
sg10
(dp93
I01
g1
(g2
g3
NtRp94
(dp95
g6
S'change'
p96
sg8
g9
sg10
(dp97
I01
g1
(g2
g3
NtRp98
(dp99
g6
Nsg8
g24
sg10
Nsg25
NsbsNg1
(g2
g3
NtRp100
(dp101
g6
Nsg8
g9
sg10
Nsg25
Nsbssg25
NsbsNg1
(g2
g3
NtRp102
(dp103
g6
(S'fedoraproject'
p104
S'org'
p105
tp106
sg8
g9
sg10
(dp107
I01
g1
(g2
g3
NtRp108
(dp109
g6
Nsg8
g9
sg10
Nsg25
NsbsNg1
(g2
g3
NtRp110
(dp111
g6
S'fc21'
p112
sg8
g9
sg10
(dp113
I01
g1
(g2
g3
NtRp114
(dp115
g6
Nsg8
g9
sg10
Nsg25
NsbsNg1
(g2
g3
NtRp116
(dp117
g6
S'allowed'
p118
sg8
g9
sg10
(dp119
I01
g1
(g2
g3
NtRp120
(dp121
g6
Nsg8
g9
sg10
Nsg25
NsbsNg1
(g2
g3
NtRp122
(dp123
g6
S'limits'
p124
sg8
g9
sg10
(dp125
I01
g1
(g2
g3
NtRp126
(dp127
g6
S'attacker'
p128
sg8
g9
sg10
(dp129
I01
g1
(g2
g3
NtRp130
(dp131
g6
Nsg8
g9
sg10
Nsg25
NsbsNg1
(g2
g3
NtRp132
(dp133
g6
Nsg8
g24
sg10
Nsg25
Nsbssg25
NsbsNg1
(g2
g3
NtRp134
(dp135
g6
S'ptrace'
p136
sg8
g9
sg10
(dp137
I01
g1
(g2
g3
NtRp138
(dp139
g6
S'kernel'
p140
sg8
g9
sg10
(dp141
I01
g1
(g2
g3
NtRp142
(dp143
g6
Nsg8
g9
sg10
Nsg25
NsbsNg1
(g2
g3
NtRp144
(dp145
g6
Nsg8
g24
sg10
Nsg25
Nsbssg25
NsbsNg1
(g2
g3
NtRp146
(dp147
g6
Nsg8
g24
sg10
Nsg25
Nsbssg25
Nsbssg25
Nsbssg25
Nsbssg25
Nsbssg25
Nsbssg25
Nsbssg25
Nsbssg25
Nsbssg25
Nsbssg25
Nsbssg25
Nsbssg25
Nsbssg25
Nsbssg25
NsbsNg1
(g2
g3
NtRp148
(dp149
g6
S'deploy'
p150
sg8
g9
sg10
(dp151
I01
g1
(g2
g3
NtRp152
(dp153
g6
S'n'
sg8
g9
sg10
(dp154
I01
g1
(g2
g3
NtRp155
(dp156
g6
Nsg8
g9
sg10
Nsg25
NsbsNg1
(g2
g3
NtRp157
(dp158
g6
S'02'
p159
sg8
g9
sg10
(dp160
I01
g1
(g2
g3
NtRp161
(dp162
g6
Nsg8
g9
sg10
Nsg25
NsbsNg1
(g2
g3
NtRp163
(dp164
g6
S'rpm'
p165
sg8
g9
sg10
(dp166
I01
g1
(g2
g3
NtRp167
(dp168
g6
Nsg8
g9
sg10
Nsg25
NsbsNg1
(g2
g3
NtRp169
(dp170
g6
S'ensure'
p171
sg8
g9
sg10
(dp172
I01
g1
(g2
g3
NtRp173
(dp174
g6
Nsg8
g9
sg10
Nsg25
NsbsNg1
(g2
g3
NtRp175
(dp176
g6
Nsg8
g24
sg10
Nsg25
Nsbssg25
Nsbssg25
Nsbssg25
Nsbssg25
NsbsNg1
(g2
g3
NtRp177
(dp178
g6
S'glusterfs'
p179
sg8
g9
sg10
(dp180
I01
g1
(g2
g3
NtRp181
(dp182
g6
(S'fedora'
p183
S'22'
p184
tp185
sg8
g9
sg10
(dp186
I01
g1
(g2
g3
NtRp187
(dp188
g6
Nsg8
g9
sg10
Nsg25
NsbsNg1
(g2
g3
NtRp189
(dp190
g6
(S'18'
p191
S'23'
p192
tp193
sg8
g9
sg10
(dp194
I01
g1
(g2
g3
NtRp195
(dp196
g6
Nsg8
g9
sg10
Nsg25
NsbsNg1
(g2
g3
NtRp197
(dp198
g6
S'vdsm'
p199
sg8
g9
sg10
(dp200
I01
g1
(g2
g3
NtRp201
(dp202
g6
Nsg8
g9
sg10
Nsg25
NsbsNg1
(g2
g3
NtRp203
(dp204
g6
Nsg8
g24
sg10
Nsg25
Nsbssg25
Nsbssg25
Nsbssg25
NsbsNg1
(g2
g3
NtRp205
(dp206
g6
S'validation'
p207
sg8
g9
sg10
(dp208
I01
g1
(g2
g3
NtRp209
(dp210
g6
S'i686'
p211
sg8
g9
sg10
(dp212
I01
g1
(g2
g3
NtRp213
(dp214
g6
Nsg8
g9
sg10
Nsg25
NsbsNg1
(g2
g3
NtRp215
(dp216
g6
Nsg8
g24
sg10
Nsg25
Nsbssg25
NsbsNg1
(g2
g3
NtRp217
(dp218
g6
S'strong'
p219
sg8
g9
sg10
(dp220
I01
g1
(g2
g3
NtRp221
(dp222
g6
Nsg8
g24
sg10
Nsg25
NsbsNg1
(g2
g3
NtRp223
(dp224
g6
S'flash'
p225
sg8
g9
sg10
(dp226
I01
g1
(g2
g3
NtRp227
(dp228
g6
S'policy'
p229
sg8
g9
sg10
(dp230
I01
g1
(g2
g3
NtRp231
(dp232
g6
Nsg8
g9
sg10
Nsg25
NsbsNg1
(g2
g3
NtRp233
(dp234
g6
Nsg8
g24
sg10
Nsg25
Nsbssg25
NsbsNg1
(g2
g3
NtRp235
(dp236
g6
(S'7'
S'server'
p237
tp238
sg8
g9
sg10
(dp239
I01
g1
(g2
g3
NtRp240
(dp241
g6
Nsg8
g24
sg10
Nsg25
NsbsNg1
(g2
g3
NtRp242
(dp243
g6
S'rc'
p244
sg8
g9
sg10
(dp245
I01
g1
(g2
g3
NtRp246
(dp247
g6
S'guest'
p248
sg8
g9
sg10
(dp249
I01
g1
(g2
g3
NtRp250
(dp251
g6
Nsg8
g9
sg10
Nsg25
NsbsNg1
(g2
g3
NtRp252
(dp253
g6
Nsg8
g24
sg10
Nsg25
Nsbssg25
NsbsNg1
(g2
g3
NtRp254
(dp255
g6
S'jboss'
p256
sg8
g9
sg10
(dp257
I01
g1
(g2
g3
NtRp258
(dp259
g6
S'upstream'
p260
sg8
g9
sg10
(dp261
I01
g1
(g2
g3
NtRp262
(dp263
g6
Nsg8
g9
sg10
Nsg25
NsbsNg1
(g2
g3
NtRp264
(dp265
g6
S'first'
p266
sg8
g9
sg10
(dp267
I01
g1
(g2
g3
NtRp268
(dp269
g6
Nsg8
g9
sg10
Nsg25
NsbsNg1
(g2
g3
NtRp270
(dp271
g6
Nsg8
g24
sg10
Nsg25
Nsbssg25
Nsbssg25
NsbsNg1
(g2
g3
NtRp272
(dp273
g6
(S'09'
p274
S'42'
p275
tp276
sg8
g9
sg10
(dp277
I01
g1
(g2
g3
NtRp278
(dp279
g6
Nsg8
g24
sg10
Nsg25
NsbsNg1
(g2
g3
NtRp280
(dp281
g6
(S'sektion'
p282
S'8'
tp283
sg8
g9
sg10
(dp284
I01
g1
(g2
g3
NtRp285
(dp286
g6
Nsg8
g24
sg10
Nsg25
NsbsNg1
(g2
g3
NtRp287
(dp288
g6
S'el6rhs'
p289
sg8
g9
sg10
(dp290
I01
g1
(g2
g3
NtRp291
(dp292
g6
Nsg8
g24
sg10
Nsg25
NsbsNg1
(g2
g3
NtRp293
(dp294
g6
(S'12'
p295
S'03'
p296
tp297
sg8
g9
sg10
(dp298
I01
g1
(g2
g3
NtRp299
(dp300
g6
Nsg8
g24
sg10
Nsg25
NsbsNg1
(g2
g3
NtRp301
(dp302
g6
S'drools'
p303
sg8
g9
sg10
(dp304
I01
g1
(g2
g3
NtRp305
(dp306
g6
Nsg8
g24
sg10
Nsg25
NsbsNg1
(g2
g3
NtRp307
(dp308
g6
(S'localhost'
p309
S'localdomain'
p310
tp311
sg8
g9
sg10
(dp312
I01
g1
(g2
g3
NtRp313
(dp314
g6
Nsg8
g24
sg10
Nsg25
NsbsNg1
(g2
g3
NtRp315
(dp316
g6
(S'jun'
p317
S'22'
p318
tp319
sg8
g9
sg10
(dp320
I01
g1
(g2
g3
NtRp321
(dp322
g6
Nsg8
g24
sg10
Nsg25
NsbsNg1
(g2
g3
NtRp323
(dp324
g6
(S'size'
p325
S'0'
tp326
sg8
g9
sg10
(dp327
I01
g1
(g2
g3
NtRp328
(dp329
g6
Nsg8
g24
sg10
Nsg25
NsbsNg1
(g2
g3
NtRp330
(dp331
g6
(S'172'
p332
S'16'
p333
tp334
sg8
g9
sg10
(dp335
I01
g1
(g2
g3
NtRp336
(dp337
g6
Nsg8
g24
sg10
Nsg25
NsbsNg1
(g2
g3
NtRp338
(dp339
g6
(S'heat'
p340
S'engine'
p341
tp342
sg8
g9
sg10
(dp343
I01
g1
(g2
g3
NtRp344
(dp345
g6
Nsg8
g24
sg10
Nsg25
NsbsNg1
(g2
g3
NtRp346
(dp347
g6
S'rb'
p348
sg8
g9
sg10
(dp349
I01
g1
(g2
g3
NtRp350
(dp351
g6
S'ovirt'
p352
sg8
g9
sg10
(dp353
I01
g1
(g2
g3
NtRp354
(dp355
g6
Nsg8
g9
sg10
Nsg25
NsbsNg1
(g2
g3
NtRp356
(dp357
g6
Nsg8
g24
sg10
Nsg25
Nsbssg25
NsbsNg1
(g2
g3
NtRp358
(dp359
g6
S'openssl'
p360
sg8
g9
sg10
(dp361
I01
g1
(g2
g3
NtRp362
(dp363
g6
Nsg8
g24
sg10
Nsg25
NsbsNg1
(g2
g3
NtRp364
(dp365
g6
(S'value'
p366
S'optimized'
p367
tp368
sg8
g9
sg10
(dp369
I01
g1
(g2
g3
NtRp370
(dp371
g6
Nsg8
g24
sg10
Nsg25
NsbsNg1
(g2
g3
NtRp372
(dp373
g6
S'tuskarclient'
p374
sg8
g9
sg10
(dp375
I01
g1
(g2
g3
NtRp376
(dp377
g6
Nsg8
g24
sg10
Nsg25
NsbsNg1
(g2
g3
NtRp378
(dp379
g6
S'bind99'
p380
sg8
g9
sg10
(dp381
I01
g1
(g2
g3
NtRp382
(dp383
g6
Nsg8
g24
sg10
Nsg25
NsbsNg1
(g2
g3
NtRp384
(dp385
g6
S'ex'
p386
sg8
g9
sg10
(dp387
I01
g1
(g2
g3
NtRp388
(dp389
g6
S'bin'
p390
sg8
g9
sg10
(dp391
I01
g1
(g2
g3
NtRp392
(dp393
g6
Nsg8
g9
sg10
Nsg25
NsbsNg1
(g2
g3
NtRp394
(dp395
g6
Nsg8
g24
sg10
Nsg25
Nsbssg25
NsbsNg1
(g2
g3
NtRp396
(dp397
g6
Nsg8
g9
sg10
Nsg25
Nsbssg25
Nsbssg25
Nsbssg25
Nsbssg25
Nsbssg25
Nsbssg25
Nsbssg25
Nsbssg25
Nsbssg25
Nsbssg25
Nsbssg25
Nsbssg25
Nsbssg25
Nsbssg25
Nsbssg25
Nsbssg25
Nsbssg25
Nsbssg25
Nsbssg25
Nsbssg25
Nsbssg25
Nsbssg25
Nsbssg25
Nsbssg25
Nsbssg25
Nsb.