ccopy_reg
_reconstructor
p1
(cnltk.classify.decisiontree
DecisionTreeClassifier
p2
c__builtin__
object
p3
NtRp4
(dp5
S'_fname'
p6
(S'revision'
p7
S'1'
tp8
sS'_label'
p9
S'bug'
p10
sS'_decisions'
p11
(dp12
I01
g1
(g2
g3
NtRp13
(dp14
g6
S'sc'
p15
sg9
g10
sg11
(dp16
I01
g1
(g2
g3
NtRp17
(dp18
g6
S'timestamp'
p19
sg9
g10
sg11
(dp20
I01
g1
(g2
g3
NtRp21
(dp22
g6
Nsg9
S'vuln'
p23
sg11
NsS'_default'
p24
NsbsNg1
(g2
g3
NtRp25
(dp26
g6
S'xenocara'
p27
sg9
g10
sg11
(dp28
I01
g1
(g2
g3
NtRp29
(dp30
g6
Nsg9
g23
sg11
Nsg24
NsbsNg1
(g2
g3
NtRp31
(dp32
g6
S's3'
p33
sg9
g10
sg11
(dp34
I01
g1
(g2
g3
NtRp35
(dp36
g6
Nsg9
g23
sg11
Nsg24
NsbsNg1
(g2
g3
NtRp37
(dp38
g6
S'7'
sg9
g10
sg11
(dp39
I01
g1
(g2
g3
NtRp40
(dp41
g6
Nsg9
g10
sg11
Nsg24
NsbsNg1
(g2
g3
NtRp42
(dp43
g6
Nsg9
g23
sg11
Nsg24
Nsbssg24
Nsbssg24
Nsbssg24
Nsbssg24
NsbsNg1
(g2
g3
NtRp44
(dp45
g6
S'netinet'
p46
sg9
g10
sg11
(dp47
I01
g1
(g2
g3
NtRp48
(dp49
g6
S'options'
p50
sg9
g10
sg11
(dp51
I01
g1
(g2
g3
NtRp52
(dp53
g6
Nsg9
g23
sg11
Nsg24
NsbsNg1
(g2
g3
NtRp54
(dp55
g6
(S'include'
p56
S'netinet'
p57
tp58
sg9
g10
sg11
(dp59
I01
g1
(g2
g3
NtRp60
(dp61
g6
Nsg9
g23
sg11
Nsg24
NsbsNg1
(g2
g3
NtRp62
(dp63
g6
S'org'
p64
sg9
g10
sg11
(dp65
I01
g1
(g2
g3
NtRp66
(dp67
g6
Nsg9
g23
sg11
Nsg24
NsbsNg1
(g2
g3
NtRp68
(dp69
g6
S'fp'
p70
sg9
g10
sg11
(dp71
I01
g1
(g2
g3
NtRp72
(dp73
g6
Nsg9
g23
sg11
Nsg24
NsbsNg1
(g2
g3
NtRp74
(dp75
g6
Nsg9
g10
sg11
Nsg24
Nsbssg24
Nsbssg24
Nsbssg24
Nsbssg24
NsbsNg1
(g2
g3
NtRp76
(dp77
g6
S'released'
p78
sg9
g10
sg11
(dp79
I01
g1
(g2
g3
NtRp80
(dp81
g6
Nsg9
g10
sg11
Nsg24
NsbsNg1
(g2
g3
NtRp82
(dp83
g6
(S'error'
p84
S'ifdef'
p85
tp86
sg9
g10
sg11
(dp87
I01
g1
(g2
g3
NtRp88
(dp89
g6
Nsg9
g10
sg11
Nsg24
NsbsNg1
(g2
g3
NtRp90
(dp91
g6
S'entering'
p92
sg9
g10
sg11
(dp93
I01
g1
(g2
g3
NtRp94
(dp95
g6
Nsg9
g10
sg11
Nsg24
NsbsNg1
(g2
g3
NtRp96
(dp97
g6
S'lists'
p98
sg9
g10
sg11
(dp99
I01
g1
(g2
g3
NtRp100
(dp101
g6
Nsg9
g10
sg11
Nsg24
NsbsNg1
(g2
g3
NtRp102
(dp103
g6
S'dist'
p104
sg9
g10
sg11
(dp105
I01
g1
(g2
g3
NtRp106
(dp107
g6
Nsg9
g10
sg11
Nsg24
NsbsNg1
(g2
g3
NtRp108
(dp109
g6
S'sun'
p110
sg9
g10
sg11
(dp111
I01
g1
(g2
g3
NtRp112
(dp113
g6
Nsg9
g10
sg11
Nsg24
NsbsNg1
(g2
g3
NtRp114
(dp115
g6
(S'f'
S'n'
tp116
sg9
g10
sg11
(dp117
I01
g1
(g2
g3
NtRp118
(dp119
g6
Nsg9
g10
sg11
Nsg24
NsbsNg1
(g2
g3
NtRp120
(dp121
g6
S'plen'
p122
sg9
g10
sg11
(dp123
I01
g1
(g2
g3
NtRp124
(dp125
g6
S'protocol'
p126
sg9
g10
sg11
(dp127
I01
g1
(g2
g3
NtRp128
(dp129
g6
Nsg9
g23
sg11
Nsg24
NsbsNg1
(g2
g3
NtRp130
(dp131
g6
Nsg9
g10
sg11
Nsg24
Nsbssg24
NsbsNg1
(g2
g3
NtRp132
(dp133
g6
S'identity'
p134
sg9
g10
sg11
(dp135
I01
g1
(g2
g3
NtRp136
(dp137
g6
Nsg9
g10
sg11
Nsg24
NsbsNg1
(g2
g3
NtRp138
(dp139
g6
Nsg9
g23
sg11
Nsg24
Nsbssg24
Nsbssg24
Nsbssg24
Nsbssg24
Nsbssg24
Nsbssg24
Nsbssg24
Nsbssg24
Nsbssg24
Nsbssg24
Nsbssg24
NsbsNg1
(g2
g3
NtRp140
(dp141
g6
S'1999'
p142
sg9
g10
sg11
(dp143
I01
g1
(g2
g3
NtRp144
(dp145
g6
Nsg9
g23
sg11
Nsg24
NsbsNg1
(g2
g3
NtRp146
(dp147
g6
S'drive'
p148
sg9
g10
sg11
(dp149
I01
g1
(g2
g3
NtRp150
(dp151
g6
Nsg9
g23
sg11
Nsg24
NsbsNg1
(g2
g3
NtRp152
(dp153
g6
Nsg9
g10
sg11
Nsg24
Nsbssg24
Nsbssg24
Nsbssg24
Nsb.